; Function Attrs: mustprogress nounwind uwtable
define internal fastcc void @_ZSt8_DestroyIPN12_GLOBAL__N_110setunset_tES1_EvT_S3_RSaIT0_E(ptr noundef readonly %0, ptr noundef readnone %1) unnamed_addr #3 personality ptr @__gxx_personality_v0 {
  %.not4.i.i = icmp eq ptr %0, %1
  br i1 %.not4.i.i, label %_ZSt8_DestroyIPN12_GLOBAL__N_110setunset_tEEvT_S3_.exit, label %.lr.ph.i.i

.lr.ph.i.i:                                       ; preds = %2, %_ZSt8_DestroyIN12_GLOBAL__N_110setunset_tEEvPT_.exit.i.i
  %.05.i.i = phi ptr [ %22, %_ZSt8_DestroyIN12_GLOBAL__N_110setunset_tEEvPT_.exit.i.i ], [ %0, %2 ]
  %3 = getelementptr inbounds i8, ptr %.05.i.i, i64 16
  %4 = load ptr, ptr %3, align 8
  %.not.i.i.i.i.i.i.i.i = icmp eq ptr %4, null
  br i1 %.not.i.i.i.i.i.i.i.i, label %_ZN5Yosys5RTLIL5ConstD2Ev.exit.i.i.i.i, label %5

5:                                                ; preds = %.lr.ph.i.i
  tail call void @_ZdlPv(ptr noundef nonnull %4) #19
  br label %_ZN5Yosys5RTLIL5ConstD2Ev.exit.i.i.i.i

_ZN5Yosys5RTLIL5ConstD2Ev.exit.i.i.i.i:           ; preds = %5, %.lr.ph.i.i
  %6 = load i32, ptr %.05.i.i, align 4
  %7 = load i8, ptr @_ZN5Yosys5RTLIL8IdString17destruct_guard_okE, align 1
  %8 = and i8 %7, 1
  %9 = icmp ne i8 %8, 0
  %10 = icmp ne i32 %6, 0
  %or.cond.i.i.i.i.i.i = and i1 %10, %9
  br i1 %or.cond.i.i.i.i.i.i, label %11, label %_ZSt8_DestroyIN12_GLOBAL__N_110setunset_tEEvPT_.exit.i.i

11:                                               ; preds = %_ZN5Yosys5RTLIL5ConstD2Ev.exit.i.i.i.i
  %12 = sext i32 %6 to i64
  %13 = load ptr, ptr @_ZN5Yosys5RTLIL8IdString24global_refcount_storage_E, align 8
  %14 = getelementptr inbounds i32, ptr %13, i64 %12
  %15 = load i32, ptr %14, align 4
  %16 = add nsw i32 %15, -1
  store i32 %16, ptr %14, align 4
  %17 = icmp sgt i32 %15, 1
  br i1 %17, label %_ZSt8_DestroyIN12_GLOBAL__N_110setunset_tEEvPT_.exit.i.i, label %18

18:                                               ; preds = %11
  invoke void @_ZN5Yosys5RTLIL8IdString14free_referenceEi(i32 noundef %6)
          to label %_ZSt8_DestroyIN12_GLOBAL__N_110setunset_tEEvPT_.exit.i.i unwind label %19

19:                                               ; preds = %18
  %20 = landingpad { ptr, i32 }
          catch ptr null
  %21 = extractvalue { ptr, i32 } %20, 0
  tail call void @__clang_call_terminate(ptr %21) #20
  unreachable

_ZSt8_DestroyIN12_GLOBAL__N_110setunset_tEEvPT_.exit.i.i: ; preds = %18, %11, %_ZN5Yosys5RTLIL5ConstD2Ev.exit.i.i.i.i
  %22 = getelementptr inbounds i8, ptr %.05.i.i, i64 48
  %.not.i.i = icmp eq ptr %22, %1
  br i1 %.not.i.i, label %_ZSt8_DestroyIPN12_GLOBAL__N_110setunset_tEEvT_S3_.exit, label %.lr.ph.i.i, !llvm.loop !21

_ZSt8_DestroyIPN12_GLOBAL__N_110setunset_tEEvT_S3_.exit: ; preds = %_ZSt8_DestroyIN12_GLOBAL__N_110setunset_tEEvPT_.exit.i.i, %2
  ret void
}